; Function Attrs: mustprogress nounwind uwtable
define void @_ZN2cv4gapi3wip3gst17GStreamerPipelineD2Ev(ptr noundef nonnull align 8 captures(none) dereferenceable(16) initializes((0, 8)) %0) unnamed_addr #8 align 2 personality ptr @__gxx_personality_v0 {
  store ptr getelementptr inbounds nuw inrange(-16, 16) (i8, ptr @_ZTVN2cv4gapi3wip3gst17GStreamerPipelineE, i64 16), ptr %0, align 8, !tbaa !3
  %2 = getelementptr inbounds nuw i8, ptr %0, i64 8
  %3 = load ptr, ptr %2, align 8, !tbaa !84
  %.not.i = icmp eq ptr %3, null
  br i1 %.not.i, label %_ZNSt10unique_ptrIN2cv4gapi3wip3gst17GStreamerPipeline4PrivESt14default_deleteIS5_EED2Ev.exit, label %_ZNKSt14default_deleteIN2cv4gapi3wip3gst17GStreamerPipeline4PrivEEclEPS5_.exit.i

_ZNKSt14default_deleteIN2cv4gapi3wip3gst17GStreamerPipeline4PrivEEclEPS5_.exit.i: ; preds = %1
  %4 = load ptr, ptr %3, align 8, !tbaa !3
  %5 = getelementptr inbounds nuw i8, ptr %4, i64 8
  %6 = load ptr, ptr %5, align 8
  tail call void %6(ptr noundef nonnull align 8 dereferenceable(80) %3) #26
  br label %_ZNSt10unique_ptrIN2cv4gapi3wip3gst17GStreamerPipeline4PrivESt14default_deleteIS5_EED2Ev.exit

_ZNSt10unique_ptrIN2cv4gapi3wip3gst17GStreamerPipeline4PrivESt14default_deleteIS5_EED2Ev.exit: ; preds = %1, %_ZNKSt14default_deleteIN2cv4gapi3wip3gst17GStreamerPipeline4PrivEEclEPS5_.exit.i
  store ptr null, ptr %2, align 8, !tbaa !84
  ret void
}